; Function Attrs: nounwind uwtable
define internal noundef i32 @json_manifest_object_start(ptr noundef captures(none) %0) #0 {
  %2 = getelementptr inbounds nuw i8, ptr %0, i64 8
  %3 = load i32, ptr %2, align 8
  switch i32 %3, label %10 [
    i32 0, label %4
    i32 6, label %5
    i32 10, label %8
  ]

4:                                                ; preds = %1
  store i32 2, ptr %2, align 8
  br label %14

5:                                                ; preds = %1
  store i32 7, ptr %2, align 8
  %6 = getelementptr inbounds nuw i8, ptr %0, i64 16
  %7 = getelementptr inbounds nuw i8, ptr %0, i64 56
  store ptr null, ptr %7, align 8
  tail call void @llvm.memset.p0.i64(ptr noundef nonnull align 8 dereferenceable(32) %6, i8 0, i64 32, i1 false)
  br label %14

8:                                                ; preds = %1
  store i32 11, ptr %2, align 8
  %9 = getelementptr inbounds nuw i8, ptr %0, i64 72
  tail call void @llvm.memset.p0.i64(ptr noundef nonnull align 8 dereferenceable(24) %9, i8 0, i64 24, i1 false)
  br label %14

10:                                               ; preds = %1
  %11 = load ptr, ptr %0, align 8
  %12 = getelementptr inbounds nuw i8, ptr %11, i64 40
  %13 = load ptr, ptr %12, align 8
  tail call void (ptr, ptr, ...) %13(ptr noundef %11, ptr noundef nonnull @.str.52, ptr noundef nonnull @.str.4) #9
  unreachable

14:                                               ; preds = %8, %5, %4
  ret i32 0
}